; Function Attrs: mustprogress sspstrong uwtable
define noundef ptr @_ZN3tbb6detail2r122cache_aligned_allocateEm(i64 noundef %0) local_unnamed_addr #0 personality ptr @__gxx_personality_v0 {
  %2 = icmp ugt i64 %0, -129
  br i1 %2, label %3, label %4

3:                                                ; preds = %1
  tail call void @_ZN3tbb6detail2r115throw_exceptionENS0_2d012exception_idE(i32 noundef 1)
  br label %4

4:                                                ; preds = %3, %1
  %spec.store.select = tail call i64 @llvm.umax.i64(i64 %0, i64 1)
  %5 = load atomic i64, ptr @_ZN3tbb6detail2r1L30cache_aligned_allocate_handlerE.0 acquire, align 8
  %.0.i.i = inttoptr i64 %5 to ptr
  %6 = tail call noundef ptr %.0.i.i(i64 noundef %spec.store.select, i64 noundef 128)
  %.not = icmp eq ptr %6, null
  br i1 %.not, label %7, label %8

7:                                                ; preds = %4
  tail call void @_ZN3tbb6detail2r115throw_exceptionENS0_2d012exception_idE(i32 noundef 1)
  br label %8

8:                                                ; preds = %7, %4
  ret ptr %6
}